c__builtin__
set
p0
((lp1
S'PRP$'
p2
aS'VBG'
p3
aS'VBD'
p4
aS'VBN'
p5
aS','
p6
aS"''"
p7
aS'VBP'
p8
aS'WDT'
p9
aS'JJ'
p10
aS'WP'
p11
aS'VBZ'
p12
aS'DT'
p13
aS'RP'
p14
aS'NN'
p15
aS'POS'
p16
aS'.'
p17
aS'TO'
p18
aS'PRP'
p19
aS'RB'
p20
aS':'
p21
aS'NNS'
p22
aS'NNP'
p23
aS'VB'
p24
aS'WRB'
p25
aS'CC'
p26
aS'PDT'
p27
aS'RBS'
p28
aS'RBR'
p29
aS'CD'
p30
aS'-NONE-'
p31
aS'EX'
p32
aS'IN'
p33
aS'WP$'
p34
aS'MD'
p35
aS'NNPS'
p36
aS'JJS'
p37
aS'JJR'
p38
atp39
Rp40
.